; Function Attrs: mustprogress nofree norecurse nosync nounwind willreturn memory(readwrite, inaccessiblemem: none) uwtable
define internal noundef ptr @_ZL14_SCSUSafeClonePK10UConverterPvPiP10UErrorCode(ptr noundef readonly captures(none) %0, ptr noundef %1, ptr noundef captures(none) %2, ptr noundef readonly captures(none) %3) #1 {
  %5 = load i32, ptr %3, align 4, !tbaa !25
  %6 = icmp slt i32 %5, 1
  br i1 %6, label %7, label %17

7:                                                ; preds = %4
  %8 = load i32, ptr %2, align 4, !tbaa !44
  %9 = icmp eq i32 %8, 0
  br i1 %9, label %10, label %11

10:                                               ; preds = %7
  store i32 376, ptr %2, align 4, !tbaa !44
  br label %17

11:                                               ; preds = %7
  %12 = getelementptr inbounds nuw i8, ptr %1, i64 288
  %13 = getelementptr inbounds nuw i8, ptr %0, i64 16
  %14 = load ptr, ptr %13, align 8, !tbaa !12
  tail call void @llvm.memcpy.p0.p0.i64(ptr noundef nonnull align 8 dereferenceable(84) %12, ptr noundef nonnull align 1 dereferenceable(84) %14, i64 84, i1 false)
  %15 = getelementptr inbounds nuw i8, ptr %1, i64 16
  store ptr %12, ptr %15, align 8, !tbaa !72
  %16 = getelementptr inbounds nuw i8, ptr %1, i64 62
  store i8 1, ptr %16, align 2, !tbaa !74
  br label %17

17:                                               ; preds = %4, %11, %10
  %.0 = phi ptr [ null, %10 ], [ %1, %11 ], [ null, %4 ]
  ret ptr %.0
}